; Function Attrs: mustprogress uwtable
define internal void @_ZL11_ISCIICloseP10UConverter(ptr noundef captures(none) %0) #0 {
  %2 = getelementptr inbounds nuw i8, ptr %0, i64 16
  %3 = load ptr, ptr %2, align 8, !tbaa !11
  %.not = icmp eq ptr %3, null
  br i1 %.not, label %9, label %4

4:                                                ; preds = %1
  %5 = getelementptr inbounds nuw i8, ptr %0, i64 62
  %6 = load i8, ptr %5, align 2, !tbaa !39
  %.not4 = icmp eq i8 %6, 0
  br i1 %.not4, label %7, label %8

7:                                                ; preds = %4
  tail call void @uprv_free_77(ptr noundef nonnull %3)
  br label %8

8:                                                ; preds = %7, %4
  store ptr null, ptr %2, align 8, !tbaa !11
  br label %9

9:                                                ; preds = %8, %1
  ret void
}